#include <math.h>
#include <stdio.h>
#include <stdlib.h>
#include <string.h>
#include <iostream>
using namespace std;

int main()
{
	int n,i,k,a[100001],b[100001],temp=0; //temp??????b[100001]?????? 
	cin>>n;
	for (i=0;i<n;i++)
	{
		cin>>a[i];	
	}
	cin>>k;
	for (i=0;i<n;i++)
	{
		if (a[i]!=k)
		{
			b[temp]=a[i];         //a[i]???k????? 
			temp++;	
		}	
	}
	for(i=0;i<temp-1;i++)
	{
		cout<<b[i]<<" ";	
	}
	cout<<b[temp-1];
	return 0;	
}